; Function Attrs: mustprogress nounwind uwtable
define void @_Z30bmcg2_sat_solver_print_sop_litP10Gia_Man_t_i(ptr noundef %0, i32 noundef %1) local_unnamed_addr #0 {
  %3 = alloca i32, align 4
  %4 = tail call noalias dereferenceable_or_null(16) ptr @malloc(i64 noundef 16) #33
  %5 = getelementptr inbounds nuw i8, ptr %4, i64 4
  store i32 0, ptr %5, align 4, !tbaa !149
  store i32 100, ptr %4, align 8, !tbaa !150
  %6 = tail call noalias dereferenceable_or_null(400) ptr @malloc(i64 noundef 400) #33
  %7 = getelementptr inbounds nuw i8, ptr %4, i64 8
  store ptr %6, ptr %7, align 8, !tbaa !151
  call void @llvm.lifetime.start.p0(i64 4, ptr nonnull %3) #30
  %8 = ashr i32 %1, 1
  store i32 %8, ptr %3, align 4, !tbaa !6
  call void @Gia_ManCollectCis(ptr noundef %0, ptr noundef nonnull %3, i32 noundef 1, ptr noundef nonnull %4) #30
  %.val21 = load i32, ptr %5, align 4, !tbaa !149
  %.val22 = load ptr, ptr %7, align 8, !tbaa !151
  %9 = sext i32 %.val21 to i64
  call void @qsort(ptr noundef %.val22, i64 noundef %9, i64 noundef 4, ptr noundef nonnull @_ZL19Vec_IntSortCompare1PiS_) #30
  %.val25 = load i32, ptr %5, align 4, !tbaa !149
  %10 = icmp sgt i32 %.val25, 0
  br i1 %10, label %.lr.ph, label %.critedge

.lr.ph:                                           ; preds = %2
  %.val19 = load ptr, ptr %7, align 8, !tbaa !151
  %11 = getelementptr i8, ptr %0, i64 32
  %.val23 = load ptr, ptr %11, align 8, !tbaa !174
  br label %12

12:                                               ; preds = %.lr.ph, %12
  %indvars.iv = phi i64 [ 0, %.lr.ph ], [ %indvars.iv.next, %12 ]
  %13 = getelementptr inbounds nuw i32, ptr %.val19, i64 %indvars.iv
  %14 = load i32, ptr %13, align 4, !tbaa !6
  %15 = sext i32 %14 to i64
  %16 = getelementptr inbounds %struct.Gia_Obj_t_, ptr %.val23, i64 %15
  %.val1.i = load i64, ptr %16, align 4
  %17 = lshr i64 %.val1.i, 32
  %18 = trunc nuw i64 %17 to i32
  %19 = and i32 %18, 536870911
  store i32 %19, ptr %13, align 4, !tbaa !6
  %indvars.iv.next = add nuw nsw i64 %indvars.iv, 1
  %.val = load i32, ptr %5, align 4, !tbaa !149
  %20 = sext i32 %.val to i64
  %21 = icmp slt i64 %indvars.iv.next, %20
  br i1 %21, label %12, label %.critedge, !llvm.loop !175

.critedge:                                        ; preds = %12, %2
  %.val.lcssa = phi i32 [ %.val25, %2 ], [ %.val, %12 ]
  %22 = call i32 (ptr, ...) @printf(ptr noundef nonnull dereferenceable(1) @.str.43, i32 noundef %.val.lcssa)
  %.val8.i = load i32, ptr %5, align 4, !tbaa !149
  %23 = icmp sgt i32 %.val8.i, 0
  br i1 %23, label %.lr.ph.i, label %_ZL12Vec_IntPrintP10Vec_Int_t_.exit

.lr.ph.i:                                         ; preds = %.critedge, %.lr.ph.i
  %indvars.iv.i = phi i64 [ %indvars.iv.next.i, %.lr.ph.i ], [ 0, %.critedge ]
  %.val7.i = load ptr, ptr %7, align 8, !tbaa !151
  %24 = getelementptr inbounds nuw i32, ptr %.val7.i, i64 %indvars.iv.i
  %25 = load i32, ptr %24, align 4, !tbaa !6
  %26 = call i32 (ptr, ...) @printf(ptr noundef nonnull dereferenceable(1) @.str.44, i32 noundef %25)
  %indvars.iv.next.i = add nuw nsw i64 %indvars.iv.i, 1
  %.val.i = load i32, ptr %5, align 4, !tbaa !149
  %27 = sext i32 %.val.i to i64
  %28 = icmp slt i64 %indvars.iv.next.i, %27
  br i1 %28, label %.lr.ph.i, label %_ZL12Vec_IntPrintP10Vec_Int_t_.exit, !llvm.loop !176

_ZL12Vec_IntPrintP10Vec_Int_t_.exit:              ; preds = %.lr.ph.i, %.critedge
  %puts.i = call i32 @puts(ptr nonnull dereferenceable(1) @str.2)
  %29 = call ptr @Gia_ManDupConeSupp(ptr noundef %0, i32 noundef %1, ptr noundef nonnull %4) #30
  %30 = load ptr, ptr %7, align 8, !tbaa !151
  %.not.i = icmp eq ptr %30, null
  br i1 %.not.i, label %_ZL11Vec_IntFreeP10Vec_Int_t_.exit, label %31

31:                                               ; preds = %_ZL12Vec_IntPrintP10Vec_Int_t_.exit
  call void @free(ptr noundef nonnull %30) #30
  br label %_ZL11Vec_IntFreeP10Vec_Int_t_.exit

_ZL11Vec_IntFreeP10Vec_Int_t_.exit:               ; preds = %_ZL12Vec_IntPrintP10Vec_Int_t_.exit, %31
  call void @free(ptr noundef nonnull %4) #30
  %32 = call ptr @bmcg2_sat_solver_sop(ptr noundef %29, i32 noundef 0)
  %33 = getelementptr i8, ptr %32, i64 8
  %.val.i24 = load ptr, ptr %33, align 8, !tbaa !161
  %34 = call i32 (ptr, ...) @printf(ptr noundef nonnull dereferenceable(1) @.str.27, ptr noundef %.val.i24)
  %35 = load ptr, ptr %33, align 8, !tbaa !161
  %.not.i.i = icmp eq ptr %35, null
  br i1 %.not.i.i, label %_Z26bmcg2_sat_solver_print_sopP10Gia_Man_t_.exit, label %36

36:                                               ; preds = %_ZL11Vec_IntFreeP10Vec_Int_t_.exit
  call void @free(ptr noundef nonnull %35) #30
  br label %_Z26bmcg2_sat_solver_print_sopP10Gia_Man_t_.exit

_Z26bmcg2_sat_solver_print_sopP10Gia_Man_t_.exit: ; preds = %_ZL11Vec_IntFreeP10Vec_Int_t_.exit, %36
  call void @free(ptr noundef nonnull %32) #30
  call void @Gia_ManStop(ptr noundef %29) #30
  %putchar = call i32 @putchar(i32 10)
  call void @llvm.lifetime.end.p0(i64 4, ptr nonnull %3) #30
  ret void
}